target datalayout = "e-m:e-p270:32:32-p271:32:32-p272:64:64-i64:64-i128:128-f80:128-n8:16:32:64-S128"
target triple = "x86_64-pc-linux-gnu"

%struct.prolog_state = type { ptr, i32, i32 }

; Function Attrs: nounwind uwtable
define internal i32 @common(ptr noundef %0, i32 noundef %1) #0 {
  %3 = alloca ptr, align 8
  %4 = alloca i32, align 4
  store ptr %0, ptr %3, align 8, !tbaa !4
  store i32 %1, ptr %4, align 4, !tbaa !12
  %5 = load ptr, ptr %3, align 8, !tbaa !4
  %6 = getelementptr inbounds nuw %struct.prolog_state, ptr %5, i32 0, i32 0
  store ptr @error, ptr %6, align 8, !tbaa !9
  ret i32 -1
}

; Function Attrs: nounwind uwtable
define internal i32 @attlist7(ptr noundef %0, i32 noundef %1, ptr noundef %2, ptr noundef %3, ptr noundef %4) #0 {
  %6 = alloca i32, align 4
  %7 = alloca ptr, align 8
  %8 = alloca i32, align 4
  %9 = alloca ptr, align 8
  %10 = alloca ptr, align 8
  %11 = alloca ptr, align 8
  store ptr %0, ptr %7, align 8, !tbaa !4
  store i32 %1, ptr %8, align 4, !tbaa !12
  store ptr %2, ptr %9, align 8, !tbaa !13
  store ptr %3, ptr %10, align 8, !tbaa !13
  store ptr %4, ptr %11, align 8, !tbaa !15
  %12 = load i32, ptr %8, align 4, !tbaa !12
  switch i32 %12, label %20 [
    i32 15, label %13
    i32 24, label %14
    i32 21, label %17
  ]

13:                                               ; preds = %5
  store i32 33, ptr %6, align 4
  br label %24

14:                                               ; preds = %5
  %15 = load ptr, ptr %7, align 8, !tbaa !4
  %16 = getelementptr inbounds nuw %struct.prolog_state, ptr %15, i32 0, i32 0
  store ptr @attlist8, ptr %16, align 8, !tbaa !9
  store i32 33, ptr %6, align 4
  br label %24

17:                                               ; preds = %5
  %18 = load ptr, ptr %7, align 8, !tbaa !4
  %19 = getelementptr inbounds nuw %struct.prolog_state, ptr %18, i32 0, i32 0
  store ptr @attlist6, ptr %19, align 8, !tbaa !9
  store i32 33, ptr %6, align 4
  br label %24

20:                                               ; preds = %5
  %21 = load ptr, ptr %7, align 8, !tbaa !4
  %22 = load i32, ptr %8, align 4, !tbaa !12
  %23 = call i32 @common(ptr noundef %21, i32 noundef %22)
  store i32 %23, ptr %6, align 4
  br label %24

24:                                               ; preds = %20, %17, %14, %13
  %25 = load i32, ptr %6, align 4
  ret i32 %25
}