; Function Attrs: mustprogress nofree norecurse nosync nounwind willreturn memory(argmem: write) uwtable
define internal range(i32 -1, 34) i32 @attlist7(ptr noundef writeonly captures(none) %0, i32 noundef %1, ptr readnone captures(none) %2, ptr readnone captures(none) %3, ptr readnone captures(none) %4) #0 {
  switch i32 %1, label %7 [
    i32 15, label %8
    i32 24, label %.sink.split
    i32 21, label %6
  ]

6:                                                ; preds = %5
  br label %.sink.split

7:                                                ; preds = %5
  br label %.sink.split

.sink.split:                                      ; preds = %5, %6, %7
  %error.sink = phi ptr [ @error, %7 ], [ @attlist6, %6 ], [ @attlist8, %5 ]
  %.0.ph = phi i32 [ -1, %7 ], [ 33, %6 ], [ 33, %5 ]
  store ptr %error.sink, ptr %0, align 8, !tbaa !4
  br label %8

8:                                                ; preds = %.sink.split, %5
  %.0 = phi i32 [ 33, %5 ], [ %.0.ph, %.sink.split ]
  ret i32 %.0
}